target datalayout = "e-m:e-p270:32:32-p271:32:32-p272:64:64-i64:64-i128:128-f80:128-n8:16:32:64-S128"
target triple = "x86_64-pc-linux-gnu"

@pmix_info_type_pmix = dso_local global ptr @.str.18, align 8
@.str.83 = private unnamed_addr constant [16 x i8] c"%s:version:full\00", align 1
@.str.84 = private unnamed_addr constant [3 x i8] c"a1\00", align 1
@.str.85 = private unnamed_addr constant [22 x i8] c"v1.1.3-4067-g08e41ed5\00", align 1
@.str.86 = private unnamed_addr constant [5 x i8] c"PMIX\00", align 1
@.str.87 = private unnamed_addr constant [16 x i8] c"%s:version:repo\00", align 1
@.str.88 = private unnamed_addr constant [19 x i8] c"PMIX repo revision\00", align 1
@.str.89 = private unnamed_addr constant [24 x i8] c"%s:version:release_date\00", align 1
@.str.90 = private unnamed_addr constant [18 x i8] c"PMIX release date\00", align 1
@.str.91 = private unnamed_addr constant [26 x i8] c"Unreleased developer copy\00", align 1
@.str.92 = private unnamed_addr constant [14 x i8] c"PMIX Standard\00", align 1
@.str.93 = private unnamed_addr constant [17 x i8] c"pmix:std:version\00", align 1
@.str.94 = private unnamed_addr constant [4 x i8] c"4.1\00", align 1
@.str.95 = private unnamed_addr constant [30 x i8] c"Stable (%s), Provisional (%s)\00", align 1
@.str.96 = private unnamed_addr constant [4 x i8] c"0.0\00", align 1
@.str.97 = private unnamed_addr constant [18 x i8] c"PMIX Standard ABI\00", align 1
@.str.98 = private unnamed_addr constant [21 x i8] c"pmix:std:abi:version\00", align 1

; Function Attrs: nounwind uwtable
define dso_local void @pmix_info_show_pmix_version(ptr noundef %0) #0 {
  %2 = alloca ptr, align 8
  %3 = alloca ptr, align 8
  %4 = alloca ptr, align 8
  %5 = alloca i32, align 4
  store ptr %0, ptr %2, align 8, !tbaa !24
  call void @llvm.lifetime.start.p0(i64 8, ptr %3) #13
  call void @llvm.lifetime.start.p0(i64 8, ptr %4) #13
  %6 = load ptr, ptr @pmix_info_type_pmix, align 8, !tbaa !24
  %7 = call i32 (ptr, ptr, ...) @asprintf(ptr noundef %3, ptr noundef @.str.83, ptr noundef %6) #13
  %8 = icmp sgt i32 0, %7
  br i1 %8, label %9, label %10

9:                                                ; preds = %1
  store i32 1, ptr %5, align 4
  br label %37

10:                                               ; preds = %1
  %11 = load ptr, ptr %2, align 8, !tbaa !24
  %12 = call ptr @pmix_info_make_version_str(ptr noundef %11, i32 noundef 6, i32 noundef 0, i32 noundef 0, ptr noundef @.str.84, ptr noundef @.str.85)
  store ptr %12, ptr %4, align 8, !tbaa !24
  %13 = load ptr, ptr %3, align 8, !tbaa !24
  %14 = load ptr, ptr %4, align 8, !tbaa !24
  call void @pmix_info_out(ptr noundef @.str.86, ptr noundef %13, ptr noundef %14)
  %15 = load ptr, ptr %3, align 8, !tbaa !24
  call void @free(ptr noundef %15) #13
  %16 = load ptr, ptr %4, align 8, !tbaa !24
  call void @free(ptr noundef %16) #13
  %17 = load ptr, ptr @pmix_info_type_pmix, align 8, !tbaa !24
  %18 = call i32 (ptr, ptr, ...) @asprintf(ptr noundef %3, ptr noundef @.str.87, ptr noundef %17) #13
  %19 = icmp sgt i32 0, %18
  br i1 %19, label %20, label %21

20:                                               ; preds = %10
  store i32 1, ptr %5, align 4
  br label %37

21:                                               ; preds = %10
  %22 = load ptr, ptr %3, align 8, !tbaa !24
  call void @pmix_info_out(ptr noundef @.str.88, ptr noundef %22, ptr noundef @.str.85)
  %23 = load ptr, ptr %3, align 8, !tbaa !24
  call void @free(ptr noundef %23) #13
  %24 = load ptr, ptr @pmix_info_type_pmix, align 8, !tbaa !24
  %25 = call i32 (ptr, ptr, ...) @asprintf(ptr noundef %3, ptr noundef @.str.89, ptr noundef %24) #13
  %26 = icmp sgt i32 0, %25
  br i1 %26, label %27, label %28

27:                                               ; preds = %21
  store i32 1, ptr %5, align 4
  br label %37

28:                                               ; preds = %21
  %29 = load ptr, ptr %3, align 8, !tbaa !24
  call void @pmix_info_out(ptr noundef @.str.90, ptr noundef %29, ptr noundef @.str.91)
  %30 = load ptr, ptr %3, align 8, !tbaa !24
  call void @free(ptr noundef %30) #13
  call void @pmix_info_out(ptr noundef @.str.92, ptr noundef @.str.93, ptr noundef @.str.94)
  %31 = call i32 (ptr, ptr, ...) @asprintf(ptr noundef %3, ptr noundef @.str.95, ptr noundef @.str.96, ptr noundef @.str.96) #13
  %32 = icmp sgt i32 0, %31
  br i1 %32, label %33, label %34

33:                                               ; preds = %28
  store i32 1, ptr %5, align 4
  br label %37

34:                                               ; preds = %28
  %35 = load ptr, ptr %3, align 8, !tbaa !24
  call void @pmix_info_out(ptr noundef @.str.97, ptr noundef @.str.98, ptr noundef %35)
  %36 = load ptr, ptr %3, align 8, !tbaa !24
  call void @free(ptr noundef %36) #13
  store i32 0, ptr %5, align 4
  br label %37

37:                                               ; preds = %34, %33, %27, %20, %9
  call void @llvm.lifetime.end.p0(i64 8, ptr %4) #13
  call void @llvm.lifetime.end.p0(i64 8, ptr %3) #13
  %38 = load i32, ptr %5, align 4
  switch i32 %38, label %40 [
    i32 0, label %39
    i32 1, label %39
  ]

39:                                               ; preds = %37, %37
  ret void

40:                                               ; preds = %37
  unreachable
}