; Function Attrs: nounwind uwtable
define dso_local void @pmix_info_show_pmix_version(ptr noundef readonly captures(none) %0) local_unnamed_addr #2 {
  %2 = alloca ptr, align 8
  call void @llvm.lifetime.start.p0(i64 8, ptr nonnull %2) #17
  %3 = load ptr, ptr @pmix_info_type_pmix, align 8, !tbaa !29
  %4 = call i32 (ptr, ptr, ...) @asprintf(ptr noundef nonnull %2, ptr noundef nonnull @.str.83, ptr noundef %3) #17
  %5 = icmp slt i32 %4, 0
  br i1 %5, label %27, label %6

6:                                                ; preds = %1
  %7 = call ptr @pmix_info_make_version_str(ptr noundef %0, i32 noundef 6, i32 noundef 0, i32 noundef 0, ptr noundef nonnull @.str.84, ptr noundef nonnull @.str.85)
  %8 = load ptr, ptr %2, align 8, !tbaa !29
  call void @pmix_info_out(ptr noundef nonnull @.str.86, ptr noundef %8, ptr noundef %7)
  %9 = load ptr, ptr %2, align 8, !tbaa !29
  call void @free(ptr noundef %9) #17
  call void @free(ptr noundef %7) #17
  %10 = load ptr, ptr @pmix_info_type_pmix, align 8, !tbaa !29
  %11 = call i32 (ptr, ptr, ...) @asprintf(ptr noundef nonnull %2, ptr noundef nonnull @.str.87, ptr noundef %10) #17
  %12 = icmp slt i32 %11, 0
  br i1 %12, label %27, label %13

13:                                               ; preds = %6
  %14 = load ptr, ptr %2, align 8, !tbaa !29
  call void @pmix_info_out(ptr noundef nonnull @.str.88, ptr noundef %14, ptr noundef nonnull @.str.85)
  %15 = load ptr, ptr %2, align 8, !tbaa !29
  call void @free(ptr noundef %15) #17
  %16 = load ptr, ptr @pmix_info_type_pmix, align 8, !tbaa !29
  %17 = call i32 (ptr, ptr, ...) @asprintf(ptr noundef nonnull %2, ptr noundef nonnull @.str.89, ptr noundef %16) #17
  %18 = icmp slt i32 %17, 0
  br i1 %18, label %27, label %19

19:                                               ; preds = %13
  %20 = load ptr, ptr %2, align 8, !tbaa !29
  call void @pmix_info_out(ptr noundef nonnull @.str.90, ptr noundef %20, ptr noundef nonnull @.str.91)
  %21 = load ptr, ptr %2, align 8, !tbaa !29
  call void @free(ptr noundef %21) #17
  call void @pmix_info_out(ptr noundef nonnull @.str.92, ptr noundef nonnull @.str.93, ptr noundef nonnull @.str.94)
  %22 = call i32 (ptr, ptr, ...) @asprintf(ptr noundef nonnull %2, ptr noundef nonnull @.str.95, ptr noundef nonnull @.str.96, ptr noundef nonnull @.str.96) #17
  %23 = icmp slt i32 %22, 0
  br i1 %23, label %27, label %24

24:                                               ; preds = %19
  %25 = load ptr, ptr %2, align 8, !tbaa !29
  call void @pmix_info_out(ptr noundef nonnull @.str.97, ptr noundef nonnull @.str.98, ptr noundef %25)
  %26 = load ptr, ptr %2, align 8, !tbaa !29
  call void @free(ptr noundef %26) #17
  br label %27

27:                                               ; preds = %19, %13, %6, %1, %24
  call void @llvm.lifetime.end.p0(i64 8, ptr nonnull %2) #17
  ret void
}